; Function Attrs: nounwind uwtable
define hidden void @_glfwShowWindowWayland(ptr noundef %0) local_unnamed_addr #0 {
  %2 = getelementptr inbounds nuw i8, ptr %0, i64 984
  %3 = load ptr, ptr %2, align 8, !tbaa !160
  %.not = icmp eq ptr %3, null
  br i1 %.not, label %4, label %9

4:                                                ; preds = %1
  %5 = getelementptr inbounds nuw i8, ptr %0, i64 960
  %6 = load ptr, ptr %5, align 8, !tbaa !235
  %.not3 = icmp eq ptr %6, null
  br i1 %.not3, label %7, label %9

7:                                                ; preds = %4
  %8 = tail call fastcc i32 @createShellObjects(ptr noundef nonnull %0)
  br label %9

9:                                                ; preds = %7, %4, %1
  ret void
}